target datalayout = "e-m:e-p270:32:32-p271:32:32-p272:64:64-i64:64-i128:128-f80:128-n8:16:32:64-S128"
target triple = "x86_64-pc-linux-gnu"

%struct._zend_posix_globals = type { i32 }
%struct._zval_struct = type { %union._zend_value, %union.anon, %union.anon.2 }
%union._zend_value = type { i64 }
%union.anon = type { i32 }
%union.anon.2 = type { i32 }
%struct._zend_execute_data = type { ptr, ptr, ptr, ptr, %struct._zval_struct, ptr, ptr, ptr, ptr }

@posix_globals = hidden global %struct._zend_posix_globals zeroinitializer, align 4

; Function Attrs: nounwind uwtable
define hidden void @zif_posix_getgroups(ptr noundef %0, ptr noundef %1) #0 {
  %3 = alloca ptr, align 8
  %4 = alloca ptr, align 8
  %5 = alloca ptr, align 8
  %6 = alloca i32, align 4
  %7 = alloca i32, align 4
  %8 = alloca ptr, align 8
  %9 = alloca ptr, align 8
  store ptr %0, ptr %3, align 8
  store ptr %1, ptr %4, align 8
  br label %10

10:                                               ; preds = %2
  %11 = load ptr, ptr %3, align 8
  %12 = getelementptr inbounds %struct._zend_execute_data, ptr %11, i32 0, i32 4
  %13 = getelementptr inbounds %struct._zval_struct, ptr %12, i32 0, i32 2
  %14 = load i32, ptr %13, align 4
  %15 = icmp ne i32 %14, 0
  %16 = xor i1 %15, true
  %17 = xor i1 %16, true
  %18 = zext i1 %17 to i32
  %19 = sext i32 %18 to i64
  %20 = icmp ne i64 %19, 0
  br i1 %20, label %21, label %22

21:                                               ; preds = %10
  call void @zend_wrong_parameters_none_error()
  br label %376

22:                                               ; preds = %10
  br label %23

23:                                               ; preds = %22
  %24 = call i32 @getgroups(i32 noundef 0, ptr noundef null) #9
  store i32 %24, ptr %6, align 4
  %25 = icmp slt i32 %24, 0
  br i1 %25, label %26, label %35

26:                                               ; preds = %23
  %27 = call ptr @__errno_location() #10
  %28 = load i32, ptr %27, align 4
  store i32 %28, ptr @posix_globals, align 4
  br label %29

29:                                               ; preds = %26
  br label %30

30:                                               ; preds = %29
  %31 = load ptr, ptr %4, align 8
  %32 = getelementptr inbounds %struct._zval_struct, ptr %31, i32 0, i32 1
  store i32 2, ptr %32, align 8
  br label %33

33:                                               ; preds = %30
  br label %376

34:                                               ; No predecessors!
  br label %35

35:                                               ; preds = %34, %23
  %36 = load i32, ptr %6, align 4
  %37 = sext i32 %36 to i64
  %38 = mul i64 4, %37
  %39 = call i1 @llvm.is.constant.i64(i64 %38)
  br i1 %39, label %40, label %327

40:                                               ; preds = %35
  %41 = load i32, ptr %6, align 4
  %42 = sext i32 %41 to i64
  %43 = mul i64 4, %42
  %44 = icmp ule i64 %43, 8
  br i1 %44, label %45, label %47

45:                                               ; preds = %40
  %46 = call noalias ptr @_emalloc_8()
  br label %325

47:                                               ; preds = %40
  %48 = load i32, ptr %6, align 4
  %49 = sext i32 %48 to i64
  %50 = mul i64 4, %49
  %51 = icmp ule i64 %50, 16
  br i1 %51, label %52, label %54

52:                                               ; preds = %47
  %53 = call noalias ptr @_emalloc_16()
  br label %323

54:                                               ; preds = %47
  %55 = load i32, ptr %6, align 4
  %56 = sext i32 %55 to i64
  %57 = mul i64 4, %56
  %58 = icmp ule i64 %57, 24
  br i1 %58, label %59, label %61

59:                                               ; preds = %54
  %60 = call noalias ptr @_emalloc_24()
  br label %321

61:                                               ; preds = %54
  %62 = load i32, ptr %6, align 4
  %63 = sext i32 %62 to i64
  %64 = mul i64 4, %63
  %65 = icmp ule i64 %64, 32
  br i1 %65, label %66, label %68

66:                                               ; preds = %61
  %67 = call noalias ptr @_emalloc_32()
  br label %319

68:                                               ; preds = %61
  %69 = load i32, ptr %6, align 4
  %70 = sext i32 %69 to i64
  %71 = mul i64 4, %70
  %72 = icmp ule i64 %71, 40
  br i1 %72, label %73, label %75

73:                                               ; preds = %68
  %74 = call noalias ptr @_emalloc_40()
  br label %317

75:                                               ; preds = %68
  %76 = load i32, ptr %6, align 4
  %77 = sext i32 %76 to i64
  %78 = mul i64 4, %77
  %79 = icmp ule i64 %78, 48
  br i1 %79, label %80, label %82

80:                                               ; preds = %75
  %81 = call noalias ptr @_emalloc_48()
  br label %315

82:                                               ; preds = %75
  %83 = load i32, ptr %6, align 4
  %84 = sext i32 %83 to i64
  %85 = mul i64 4, %84
  %86 = icmp ule i64 %85, 56
  br i1 %86, label %87, label %89

87:                                               ; preds = %82
  %88 = call noalias ptr @_emalloc_56()
  br label %313

89:                                               ; preds = %82
  %90 = load i32, ptr %6, align 4
  %91 = sext i32 %90 to i64
  %92 = mul i64 4, %91
  %93 = icmp ule i64 %92, 64
  br i1 %93, label %94, label %96

94:                                               ; preds = %89
  %95 = call noalias ptr @_emalloc_64()
  br label %311

96:                                               ; preds = %89
  %97 = load i32, ptr %6, align 4
  %98 = sext i32 %97 to i64
  %99 = mul i64 4, %98
  %100 = icmp ule i64 %99, 80
  br i1 %100, label %101, label %103

101:                                              ; preds = %96
  %102 = call noalias ptr @_emalloc_80()
  br label %309

103:                                              ; preds = %96
  %104 = load i32, ptr %6, align 4
  %105 = sext i32 %104 to i64
  %106 = mul i64 4, %105
  %107 = icmp ule i64 %106, 96
  br i1 %107, label %108, label %110

108:                                              ; preds = %103
  %109 = call noalias ptr @_emalloc_96()
  br label %307

110:                                              ; preds = %103
  %111 = load i32, ptr %6, align 4
  %112 = sext i32 %111 to i64
  %113 = mul i64 4, %112
  %114 = icmp ule i64 %113, 112
  br i1 %114, label %115, label %117

115:                                              ; preds = %110
  %116 = call noalias ptr @_emalloc_112()
  br label %305

117:                                              ; preds = %110
  %118 = load i32, ptr %6, align 4
  %119 = sext i32 %118 to i64
  %120 = mul i64 4, %119
  %121 = icmp ule i64 %120, 128
  br i1 %121, label %122, label %124

122:                                              ; preds = %117
  %123 = call noalias ptr @_emalloc_128()
  br label %303

124:                                              ; preds = %117
  %125 = load i32, ptr %6, align 4
  %126 = sext i32 %125 to i64
  %127 = mul i64 4, %126
  %128 = icmp ule i64 %127, 160
  br i1 %128, label %129, label %131

129:                                              ; preds = %124
  %130 = call noalias ptr @_emalloc_160()
  br label %301

131:                                              ; preds = %124
  %132 = load i32, ptr %6, align 4
  %133 = sext i32 %132 to i64
  %134 = mul i64 4, %133
  %135 = icmp ule i64 %134, 192
  br i1 %135, label %136, label %138

136:                                              ; preds = %131
  %137 = call noalias ptr @_emalloc_192()
  br label %299

138:                                              ; preds = %131
  %139 = load i32, ptr %6, align 4
  %140 = sext i32 %139 to i64
  %141 = mul i64 4, %140
  %142 = icmp ule i64 %141, 224
  br i1 %142, label %143, label %145

143:                                              ; preds = %138
  %144 = call noalias ptr @_emalloc_224()
  br label %297

145:                                              ; preds = %138
  %146 = load i32, ptr %6, align 4
  %147 = sext i32 %146 to i64
  %148 = mul i64 4, %147
  %149 = icmp ule i64 %148, 256
  br i1 %149, label %150, label %152

150:                                              ; preds = %145
  %151 = call noalias ptr @_emalloc_256()
  br label %295

152:                                              ; preds = %145
  %153 = load i32, ptr %6, align 4
  %154 = sext i32 %153 to i64
  %155 = mul i64 4, %154
  %156 = icmp ule i64 %155, 320
  br i1 %156, label %157, label %159

157:                                              ; preds = %152
  %158 = call noalias ptr @_emalloc_320()
  br label %293

159:                                              ; preds = %152
  %160 = load i32, ptr %6, align 4
  %161 = sext i32 %160 to i64
  %162 = mul i64 4, %161
  %163 = icmp ule i64 %162, 384
  br i1 %163, label %164, label %166

164:                                              ; preds = %159
  %165 = call noalias ptr @_emalloc_384()
  br label %291

166:                                              ; preds = %159
  %167 = load i32, ptr %6, align 4
  %168 = sext i32 %167 to i64
  %169 = mul i64 4, %168
  %170 = icmp ule i64 %169, 448
  br i1 %170, label %171, label %173

171:                                              ; preds = %166
  %172 = call noalias ptr @_emalloc_448()
  br label %289

173:                                              ; preds = %166
  %174 = load i32, ptr %6, align 4
  %175 = sext i32 %174 to i64
  %176 = mul i64 4, %175
  %177 = icmp ule i64 %176, 512
  br i1 %177, label %178, label %180

178:                                              ; preds = %173
  %179 = call noalias ptr @_emalloc_512()
  br label %287

180:                                              ; preds = %173
  %181 = load i32, ptr %6, align 4
  %182 = sext i32 %181 to i64
  %183 = mul i64 4, %182
  %184 = icmp ule i64 %183, 640
  br i1 %184, label %185, label %187

185:                                              ; preds = %180
  %186 = call noalias ptr @_emalloc_640()
  br label %285

187:                                              ; preds = %180
  %188 = load i32, ptr %6, align 4
  %189 = sext i32 %188 to i64
  %190 = mul i64 4, %189
  %191 = icmp ule i64 %190, 768
  br i1 %191, label %192, label %194

192:                                              ; preds = %187
  %193 = call noalias ptr @_emalloc_768()
  br label %283

194:                                              ; preds = %187
  %195 = load i32, ptr %6, align 4
  %196 = sext i32 %195 to i64
  %197 = mul i64 4, %196
  %198 = icmp ule i64 %197, 896
  br i1 %198, label %199, label %201

199:                                              ; preds = %194
  %200 = call noalias ptr @_emalloc_896()
  br label %281

201:                                              ; preds = %194
  %202 = load i32, ptr %6, align 4
  %203 = sext i32 %202 to i64
  %204 = mul i64 4, %203
  %205 = icmp ule i64 %204, 1024
  br i1 %205, label %206, label %208

206:                                              ; preds = %201
  %207 = call noalias ptr @_emalloc_1024()
  br label %279

208:                                              ; preds = %201
  %209 = load i32, ptr %6, align 4
  %210 = sext i32 %209 to i64
  %211 = mul i64 4, %210
  %212 = icmp ule i64 %211, 1280
  br i1 %212, label %213, label %215

213:                                              ; preds = %208
  %214 = call noalias ptr @_emalloc_1280()
  br label %277

215:                                              ; preds = %208
  %216 = load i32, ptr %6, align 4
  %217 = sext i32 %216 to i64
  %218 = mul i64 4, %217
  %219 = icmp ule i64 %218, 1536
  br i1 %219, label %220, label %222

220:                                              ; preds = %215
  %221 = call noalias ptr @_emalloc_1536()
  br label %275

222:                                              ; preds = %215
  %223 = load i32, ptr %6, align 4
  %224 = sext i32 %223 to i64
  %225 = mul i64 4, %224
  %226 = icmp ule i64 %225, 1792
  br i1 %226, label %227, label %229

227:                                              ; preds = %222
  %228 = call noalias ptr @_emalloc_1792()
  br label %273

229:                                              ; preds = %222
  %230 = load i32, ptr %6, align 4
  %231 = sext i32 %230 to i64
  %232 = mul i64 4, %231
  %233 = icmp ule i64 %232, 2048
  br i1 %233, label %234, label %236

234:                                              ; preds = %229
  %235 = call noalias ptr @_emalloc_2048()
  br label %271

236:                                              ; preds = %229
  %237 = load i32, ptr %6, align 4
  %238 = sext i32 %237 to i64
  %239 = mul i64 4, %238
  %240 = icmp ule i64 %239, 2560
  br i1 %240, label %241, label %243

241:                                              ; preds = %236
  %242 = call noalias ptr @_emalloc_2560()
  br label %269

243:                                              ; preds = %236
  %244 = load i32, ptr %6, align 4
  %245 = sext i32 %244 to i64
  %246 = mul i64 4, %245
  %247 = icmp ule i64 %246, 3072
  br i1 %247, label %248, label %250

248:                                              ; preds = %243
  %249 = call noalias ptr @_emalloc_3072()
  br label %267

250:                                              ; preds = %243
  %251 = load i32, ptr %6, align 4
  %252 = sext i32 %251 to i64
  %253 = mul i64 4, %252
  %254 = icmp ule i64 %253, 2093056
  br i1 %254, label %255, label %260

255:                                              ; preds = %250
  %256 = load i32, ptr %6, align 4
  %257 = sext i32 %256 to i64
  %258 = mul i64 4, %257
  %259 = call noalias ptr @_emalloc_large(i64 noundef %258) #11
  br label %265

260:                                              ; preds = %250
  %261 = load i32, ptr %6, align 4
  %262 = sext i32 %261 to i64
  %263 = mul i64 4, %262
  %264 = call noalias ptr @_emalloc_huge(i64 noundef %263) #11
  br label %265

265:                                              ; preds = %260, %255
  %266 = phi ptr [ %259, %255 ], [ %264, %260 ]
  br label %267

267:                                              ; preds = %265, %248
  %268 = phi ptr [ %249, %248 ], [ %266, %265 ]
  br label %269

269:                                              ; preds = %267, %241
  %270 = phi ptr [ %242, %241 ], [ %268, %267 ]
  br label %271

271:                                              ; preds = %269, %234
  %272 = phi ptr [ %235, %234 ], [ %270, %269 ]
  br label %273

273:                                              ; preds = %271, %227
  %274 = phi ptr [ %228, %227 ], [ %272, %271 ]
  br label %275

275:                                              ; preds = %273, %220
  %276 = phi ptr [ %221, %220 ], [ %274, %273 ]
  br label %277

277:                                              ; preds = %275, %213
  %278 = phi ptr [ %214, %213 ], [ %276, %275 ]
  br label %279

279:                                              ; preds = %277, %206
  %280 = phi ptr [ %207, %206 ], [ %278, %277 ]
  br label %281

281:                                              ; preds = %279, %199
  %282 = phi ptr [ %200, %199 ], [ %280, %279 ]
  br label %283

283:                                              ; preds = %281, %192
  %284 = phi ptr [ %193, %192 ], [ %282, %281 ]
  br label %285

285:                                              ; preds = %283, %185
  %286 = phi ptr [ %186, %185 ], [ %284, %283 ]
  br label %287

287:                                              ; preds = %285, %178
  %288 = phi ptr [ %179, %178 ], [ %286, %285 ]
  br label %289

289:                                              ; preds = %287, %171
  %290 = phi ptr [ %172, %171 ], [ %288, %287 ]
  br label %291

291:                                              ; preds = %289, %164
  %292 = phi ptr [ %165, %164 ], [ %290, %289 ]
  br label %293

293:                                              ; preds = %291, %157
  %294 = phi ptr [ %158, %157 ], [ %292, %291 ]
  br label %295

295:                                              ; preds = %293, %150
  %296 = phi ptr [ %151, %150 ], [ %294, %293 ]
  br label %297

297:                                              ; preds = %295, %143
  %298 = phi ptr [ %144, %143 ], [ %296, %295 ]
  br label %299

299:                                              ; preds = %297, %136
  %300 = phi ptr [ %137, %136 ], [ %298, %297 ]
  br label %301

301:                                              ; preds = %299, %129
  %302 = phi ptr [ %130, %129 ], [ %300, %299 ]
  br label %303

303:                                              ; preds = %301, %122
  %304 = phi ptr [ %123, %122 ], [ %302, %301 ]
  br label %305

305:                                              ; preds = %303, %115
  %306 = phi ptr [ %116, %115 ], [ %304, %303 ]
  br label %307

307:                                              ; preds = %305, %108
  %308 = phi ptr [ %109, %108 ], [ %306, %305 ]
  br label %309

309:                                              ; preds = %307, %101
  %310 = phi ptr [ %102, %101 ], [ %308, %307 ]
  br label %311

311:                                              ; preds = %309, %94
  %312 = phi ptr [ %95, %94 ], [ %310, %309 ]
  br label %313

313:                                              ; preds = %311, %87
  %314 = phi ptr [ %88, %87 ], [ %312, %311 ]
  br label %315

315:                                              ; preds = %313, %80
  %316 = phi ptr [ %81, %80 ], [ %314, %313 ]
  br label %317

317:                                              ; preds = %315, %73
  %318 = phi ptr [ %74, %73 ], [ %316, %315 ]
  br label %319

319:                                              ; preds = %317, %66
  %320 = phi ptr [ %67, %66 ], [ %318, %317 ]
  br label %321

321:                                              ; preds = %319, %59
  %322 = phi ptr [ %60, %59 ], [ %320, %319 ]
  br label %323

323:                                              ; preds = %321, %52
  %324 = phi ptr [ %53, %52 ], [ %322, %321 ]
  br label %325

325:                                              ; preds = %323, %45
  %326 = phi ptr [ %46, %45 ], [ %324, %323 ]
  br label %332

327:                                              ; preds = %35
  %328 = load i32, ptr %6, align 4
  %329 = sext i32 %328 to i64
  %330 = mul i64 4, %329
  %331 = call noalias ptr @_emalloc(i64 noundef %330) #11
  br label %332

332:                                              ; preds = %327, %325
  %333 = phi ptr [ %326, %325 ], [ %331, %327 ]
  store ptr %333, ptr %5, align 8
  %334 = load i32, ptr %6, align 4
  %335 = load ptr, ptr %5, align 8
  %336 = call i32 @getgroups(i32 noundef %334, ptr noundef %335) #9
  store i32 %336, ptr %6, align 4
  %337 = icmp slt i32 %336, 0
  br i1 %337, label %338, label %348

338:                                              ; preds = %332
  %339 = call ptr @__errno_location() #10
  %340 = load i32, ptr %339, align 4
  store i32 %340, ptr @posix_globals, align 4
  %341 = load ptr, ptr %5, align 8
  call void @_efree(ptr noundef %341)
  br label %342

342:                                              ; preds = %338
  br label %343

343:                                              ; preds = %342
  %344 = load ptr, ptr %4, align 8
  %345 = getelementptr inbounds %struct._zval_struct, ptr %344, i32 0, i32 1
  store i32 2, ptr %345, align 8
  br label %346

346:                                              ; preds = %343
  br label %376

347:                                              ; No predecessors!
  br label %348

348:                                              ; preds = %347, %332
  br label %349

349:                                              ; preds = %348
  %350 = call ptr @_zend_new_array_0()
  store ptr %350, ptr %8, align 8
  %351 = load ptr, ptr %4, align 8
  store ptr %351, ptr %9, align 8
  %352 = load ptr, ptr %8, align 8
  %353 = load ptr, ptr %9, align 8
  %354 = getelementptr inbounds %struct._zval_struct, ptr %353, i32 0, i32 0
  store ptr %352, ptr %354, align 8
  %355 = load ptr, ptr %9, align 8
  %356 = getelementptr inbounds %struct._zval_struct, ptr %355, i32 0, i32 1
  store i32 775, ptr %356, align 8
  br label %357

357:                                              ; preds = %349
  store i32 0, ptr %7, align 4
  br label %358

358:                                              ; preds = %371, %357
  %359 = load i32, ptr %7, align 4
  %360 = load i32, ptr %6, align 4
  %361 = icmp slt i32 %359, %360
  br i1 %361, label %362, label %374

362:                                              ; preds = %358
  %363 = load ptr, ptr %4, align 8
  %364 = load ptr, ptr %5, align 8
  %365 = load i32, ptr %7, align 4
  %366 = sext i32 %365 to i64
  %367 = getelementptr inbounds i32, ptr %364, i64 %366
  %368 = load i32, ptr %367, align 4
  %369 = zext i32 %368 to i64
  %370 = call i32 @add_next_index_long(ptr noundef %363, i64 noundef %369)
  br label %371

371:                                              ; preds = %362
  %372 = load i32, ptr %7, align 4
  %373 = add nsw i32 %372, 1
  store i32 %373, ptr %7, align 4
  br label %358

374:                                              ; preds = %358
  %375 = load ptr, ptr %5, align 8
  call void @_efree(ptr noundef %375)
  br label %376

376:                                              ; preds = %374, %346, %33, %21
  ret void
}