; Function Attrs: nounwind uwtable
define hidden void @zif_posix_getgroups(ptr nocapture noundef readonly %0, ptr noundef %1) #0 {
  %3 = getelementptr inbounds i8, ptr %0, i64 44
  %4 = load i32, ptr %3, align 4
  %.not = icmp eq i32 %4, 0
  br i1 %.not, label %6, label %5

5:                                                ; preds = %2
  tail call void @zend_wrong_parameters_none_error() #11
  br label %30

6:                                                ; preds = %2
  %7 = tail call i32 @getgroups(i32 noundef 0, ptr noundef null) #11
  %8 = icmp slt i32 %7, 0
  br i1 %8, label %9, label %13

9:                                                ; preds = %6
  %10 = tail call ptr @__errno_location() #12
  %11 = load i32, ptr %10, align 4
  store i32 %11, ptr @posix_globals, align 4
  %12 = getelementptr inbounds i8, ptr %1, i64 8
  store i32 2, ptr %12, align 8
  br label %30

13:                                               ; preds = %6
  %14 = zext nneg i32 %7 to i64
  %15 = shl nuw nsw i64 %14, 2
  %16 = tail call noalias ptr @_emalloc(i64 noundef %15) #13
  %17 = tail call i32 @getgroups(i32 noundef %7, ptr noundef %16) #11
  %18 = icmp slt i32 %17, 0
  br i1 %18, label %19, label %23

19:                                               ; preds = %13
  %20 = tail call ptr @__errno_location() #12
  %21 = load i32, ptr %20, align 4
  store i32 %21, ptr @posix_globals, align 4
  tail call void @_efree(ptr noundef %16) #11
  %22 = getelementptr inbounds i8, ptr %1, i64 8
  store i32 2, ptr %22, align 8
  br label %30

23:                                               ; preds = %13
  %24 = tail call ptr @_zend_new_array_0() #11
  store ptr %24, ptr %1, align 8
  %25 = getelementptr inbounds i8, ptr %1, i64 8
  store i32 775, ptr %25, align 8
  %.not55 = icmp eq i32 %17, 0
  br i1 %.not55, label %._crit_edge, label %.lr.ph.preheader

.lr.ph.preheader:                                 ; preds = %23
  %wide.trip.count = zext nneg i32 %17 to i64
  br label %.lr.ph

.lr.ph:                                           ; preds = %.lr.ph.preheader, %.lr.ph
  %indvars.iv = phi i64 [ 0, %.lr.ph.preheader ], [ %indvars.iv.next, %.lr.ph ]
  %26 = getelementptr inbounds i32, ptr %16, i64 %indvars.iv
  %27 = load i32, ptr %26, align 4
  %28 = zext i32 %27 to i64
  %29 = tail call i32 @add_next_index_long(ptr noundef nonnull %1, i64 noundef %28) #11
  %indvars.iv.next = add nuw nsw i64 %indvars.iv, 1
  %exitcond.not = icmp eq i64 %indvars.iv.next, %wide.trip.count
  br i1 %exitcond.not, label %._crit_edge, label %.lr.ph

._crit_edge:                                      ; preds = %.lr.ph, %23
  tail call void @_efree(ptr noundef %16) #11
  br label %30

30:                                               ; preds = %._crit_edge, %19, %9, %5
  ret void
}